; Function Attrs: mustprogress uwtable
define void @_ZN7rocksdb14AutoRollLogger11LogInternalEPKcz(ptr noundef nonnull align 8 dereferenceable(648) %0, ptr noundef %1, ...) local_unnamed_addr #0 align 2 {
  %3 = alloca [1 x %struct.__va_list_tag], align 16
  %4 = getelementptr inbounds nuw i8, ptr %0, i64 608
  tail call void @_ZNK7rocksdb4port5Mutex10AssertHeldEv(ptr noundef nonnull align 8 dereferenceable(40) %4)
  %5 = getelementptr inbounds nuw i8, ptr %0, i64 176
  %6 = load ptr, ptr %5, align 8, !tbaa !132
  %.not = icmp eq ptr %6, null
  br i1 %.not, label %12, label %7

7:                                                ; preds = %2
  call void @llvm.lifetime.start.p0(i64 24, ptr nonnull %3) #22
  call void @llvm.va_start.p0(ptr nonnull %3)
  %8 = load ptr, ptr %5, align 8, !tbaa !132
  %9 = load ptr, ptr %8, align 8, !tbaa !11
  %10 = getelementptr inbounds nuw i8, ptr %9, i64 32
  %11 = load ptr, ptr %10, align 8
  call void %11(ptr noundef nonnull align 8 dereferenceable(10) %8, ptr noundef %1, ptr noundef nonnull %3)
  call void @llvm.va_end.p0(ptr nonnull %3)
  call void @llvm.lifetime.end.p0(i64 24, ptr nonnull %3) #22
  br label %12

12:                                               ; preds = %2, %7
  ret void
}